target datalayout = "e-m:e-p270:32:32-p271:32:32-p272:64:64-i64:64-i128:128-f80:128-n8:16:32:64-S128"
target triple = "x86_64-pc-linux-gnu"

%struct._asn1_ctx_t = type { i32, i32, i8, ptr, ptr, ptr, ptr, ptr, %struct.anon, %struct.anon.2, %struct.anon.3, ptr }
%struct.anon = type { i32, i8, i8, i8, ptr, ptr, i32, i32, ptr, ptr, ptr, %union.anon }
%union.anon = type { %struct.anon.0 }
%struct.anon.0 = type { ptr }
%struct.anon.2 = type { ptr, ptr, ptr }
%struct.anon.3 = type { i32, i8, ptr, i32, i32, ptr, ptr, ptr, %union.anon.4 }
%union.anon.4 = type { %struct.anon.5 }
%struct.anon.5 = type { ptr }
%struct.mms_actx_private_data_t = type { i32, i32, i32, i32, i32, i16, ptr, i32, i32, i32, ptr, ptr, i32 }
%struct.nstime_t = type { i64, i32 }
%struct._mms_transaction_t = type { i32, i32, %struct.nstime_t, i32, i32 }

@hf_mms_iec61850_origin_orident = internal global i32 0, align 4

; Function Attrs: null_pointer_is_valid sspstrong uwtable
define internal i32 @dissect_mms_T_data_octet_string(i1 noundef zeroext %0, ptr noundef %1, i32 noundef %2, ptr noundef %3, ptr noundef %4, i32 noundef %5) #0 {
  %7 = alloca i8, align 1
  %8 = alloca ptr, align 8
  %9 = alloca i32, align 4
  %10 = alloca ptr, align 8
  %11 = alloca ptr, align 8
  %12 = alloca i32, align 4
  %13 = alloca ptr, align 8
  %14 = zext i1 %0 to i8
  store i8 %14, ptr %7, align 1
  store ptr %1, ptr %8, align 8
  store i32 %2, ptr %9, align 4
  store ptr %3, ptr %10, align 8
  store ptr %4, ptr %11, align 8
  store i32 %5, ptr %12, align 4
  call void @llvm.lifetime.start.p0(i64 8, ptr %13) #8
  %15 = load ptr, ptr %10, align 8
  %16 = getelementptr inbounds nuw %struct._asn1_ctx_t, ptr %15, i32 0, i32 7
  %17 = load ptr, ptr %16, align 8
  store ptr %17, ptr %13, align 8
  %18 = load ptr, ptr %13, align 8
  %19 = icmp ne ptr %18, null
  br i1 %19, label %20, label %41

20:                                               ; preds = %6
  %21 = load ptr, ptr %13, align 8
  %22 = getelementptr inbounds nuw %struct.mms_actx_private_data_t, ptr %21, i32 0, i32 10
  %23 = load ptr, ptr %22, align 8
  %24 = icmp ne ptr %23, null
  br i1 %24, label %25, label %41

25:                                               ; preds = %20
  %26 = load ptr, ptr %13, align 8
  %27 = getelementptr inbounds nuw %struct.mms_actx_private_data_t, ptr %26, i32 0, i32 10
  %28 = load ptr, ptr %27, align 8
  %29 = getelementptr inbounds nuw %struct._mms_transaction_t, ptr %28, i32 0, i32 4
  %30 = load i32, ptr %29, align 4
  %31 = icmp eq i32 %30, 5
  br i1 %31, label %32, label %40

32:                                               ; preds = %25
  %33 = load ptr, ptr %13, align 8
  %34 = getelementptr inbounds nuw %struct.mms_actx_private_data_t, ptr %33, i32 0, i32 4
  %35 = load i32, ptr %34, align 8
  %36 = icmp eq i32 %35, 6
  br i1 %36, label %37, label %39

37:                                               ; preds = %32
  %38 = load i32, ptr @hf_mms_iec61850_origin_orident, align 4
  store i32 %38, ptr %12, align 4
  br label %39

39:                                               ; preds = %37, %32
  br label %40

40:                                               ; preds = %39, %25
  br label %41

41:                                               ; preds = %40, %20, %6
  %42 = load i8, ptr %7, align 1, !range !6, !noundef !7
  %43 = trunc i8 %42 to i1
  %44 = load ptr, ptr %10, align 8
  %45 = load ptr, ptr %11, align 8
  %46 = load ptr, ptr %8, align 8
  %47 = load i32, ptr %9, align 4
  %48 = load i32, ptr %12, align 4
  %49 = call i32 @dissect_ber_octet_string(i1 noundef zeroext %43, ptr noundef %44, ptr noundef %45, ptr noundef %46, i32 noundef %47, i32 noundef %48, ptr noundef null)
  store i32 %49, ptr %9, align 4
  %50 = load i32, ptr %9, align 4
  call void @llvm.lifetime.end.p0(i64 8, ptr %13) #8
  ret i32 %50
}