; Function Attrs: null_pointer_is_valid sspstrong uwtable
define internal i32 @dissect_mms_T_data_octet_string(i1 noundef zeroext %0, ptr noundef %1, i32 noundef %2, ptr noundef %3, ptr noundef %4, i32 noundef %5) #0 {
  %7 = getelementptr inbounds nuw i8, ptr %3, i64 48
  %8 = load ptr, ptr %7, align 8
  %.not = icmp eq ptr %8, null
  br i1 %.not, label %21, label %9

9:                                                ; preds = %6
  %10 = getelementptr inbounds nuw i8, ptr %8, i64 48
  %11 = load ptr, ptr %10, align 8
  %.not13 = icmp eq ptr %11, null
  br i1 %.not13, label %21, label %12

12:                                               ; preds = %9
  %13 = getelementptr inbounds nuw i8, ptr %11, i64 28
  %14 = load i32, ptr %13, align 4
  %15 = icmp eq i32 %14, 5
  br i1 %15, label %16, label %21

16:                                               ; preds = %12
  %17 = getelementptr inbounds nuw i8, ptr %8, i64 16
  %18 = load i32, ptr %17, align 8
  %19 = icmp eq i32 %18, 6
  %20 = load i32, ptr @hf_mms_iec61850_origin_orident, align 4
  %spec.select = select i1 %19, i32 %20, i32 %5
  br label %21

21:                                               ; preds = %16, %12, %9, %6
  %.0 = phi i32 [ %5, %12 ], [ %5, %9 ], [ %5, %6 ], [ %spec.select, %16 ]
  %22 = tail call i32 @dissect_ber_octet_string(i1 noundef zeroext %0, ptr noundef %3, ptr noundef %4, ptr noundef %1, i32 noundef %2, i32 noundef %.0, ptr noundef null)
  ret i32 %22
}